target datalayout = "e-m:e-p270:32:32-p271:32:32-p272:64:64-i64:64-i128:128-f80:128-n8:16:32:64-S128"
target triple = "x86_64-pc-linux-gnu"

@.str.72 = private unnamed_addr constant [24 x i8] c"NOTES_MERGE_WORKTREE/%s\00", align 1
@.str.73 = private unnamed_addr constant [36 x i8] c"unable to create directory for '%s'\00", align 1
@.str.74 = private unnamed_addr constant [12 x i8] c"notes-merge\00", align 1

; Function Attrs: nounwind uwtable
define internal void @write_buf_to_worktree(ptr noundef %0, ptr noundef %1, i64 noundef %2) #0 {
  %4 = alloca ptr, align 8
  %5 = alloca ptr, align 8
  %6 = alloca i64, align 8
  %7 = alloca i32, align 4
  %8 = alloca ptr, align 8
  %9 = alloca i64, align 8
  %10 = alloca i32, align 4
  store ptr %0, ptr %4, align 8, !tbaa !20
  store ptr %1, ptr %5, align 8, !tbaa !67
  store i64 %2, ptr %6, align 8, !tbaa !84
  call void @llvm.lifetime.start.p0(i64 4, ptr %7) #12
  call void @llvm.lifetime.start.p0(i64 8, ptr %8) #12
  %11 = load ptr, ptr %4, align 8, !tbaa !20
  %12 = call ptr @oid_to_hex(ptr noundef %11)
  %13 = call ptr (ptr, ...) @git_pathdup(ptr noundef @.str.72, ptr noundef %12)
  store ptr %13, ptr %8, align 8, !tbaa !67
  %14 = load ptr, ptr %8, align 8, !tbaa !67
  %15 = call i32 @safe_create_leading_directories_const(ptr noundef %14)
  %16 = icmp ne i32 %15, 0
  br i1 %16, label %17, label %19

17:                                               ; preds = %3
  %18 = load ptr, ptr %8, align 8, !tbaa !67
  call void (ptr, ...) @die_errno(ptr noundef @.str.73, ptr noundef %18) #13
  unreachable

19:                                               ; preds = %3
  %20 = load ptr, ptr %8, align 8, !tbaa !67
  %21 = call i32 (ptr, i32, ...) @xopen(ptr noundef %20, i32 noundef 193, i32 noundef 438)
  store i32 %21, ptr %7, align 4, !tbaa !24
  br label %22

22:                                               ; preds = %47, %19
  %23 = load i64, ptr %6, align 8, !tbaa !84
  %24 = icmp ugt i64 %23, 0
  br i1 %24, label %25, label %48

25:                                               ; preds = %22
  call void @llvm.lifetime.start.p0(i64 8, ptr %9) #12
  %26 = load i32, ptr %7, align 4, !tbaa !24
  %27 = load ptr, ptr %5, align 8, !tbaa !67
  %28 = load i64, ptr %6, align 8, !tbaa !84
  %29 = call i64 @write_in_full(i32 noundef %26, ptr noundef %27, i64 noundef %28)
  store i64 %29, ptr %9, align 8, !tbaa !84
  %30 = load i64, ptr %9, align 8, !tbaa !84
  %31 = icmp slt i64 %30, 0
  br i1 %31, label %32, label %38

32:                                               ; preds = %25
  %33 = call ptr @__errno_location() #16
  %34 = load i32, ptr %33, align 4, !tbaa !24
  %35 = icmp eq i32 %34, 32
  br i1 %35, label %36, label %37

36:                                               ; preds = %32
  store i32 3, ptr %10, align 4
  br label %45

37:                                               ; preds = %32
  call void (ptr, ...) @die_errno(ptr noundef @.str.74) #13
  unreachable

38:                                               ; preds = %25
  %39 = load i64, ptr %9, align 8, !tbaa !84
  %40 = load i64, ptr %6, align 8, !tbaa !84
  %41 = sub i64 %40, %39
  store i64 %41, ptr %6, align 8, !tbaa !84
  %42 = load i64, ptr %9, align 8, !tbaa !84
  %43 = load ptr, ptr %5, align 8, !tbaa !67
  %44 = getelementptr inbounds i8, ptr %43, i64 %42
  store ptr %44, ptr %5, align 8, !tbaa !67
  store i32 0, ptr %10, align 4
  br label %45

45:                                               ; preds = %38, %36
  call void @llvm.lifetime.end.p0(i64 8, ptr %9) #12
  %46 = load i32, ptr %10, align 4
  switch i32 %46, label %52 [
    i32 0, label %47
    i32 3, label %48
  ]

47:                                               ; preds = %45
  br label %22, !llvm.loop !129

48:                                               ; preds = %45, %22
  %49 = load i32, ptr %7, align 4, !tbaa !24
  %50 = call i32 @close(i32 noundef %49)
  %51 = load ptr, ptr %8, align 8, !tbaa !67
  call void @free(ptr noundef %51) #12
  call void @llvm.lifetime.end.p0(i64 8, ptr %8) #12
  call void @llvm.lifetime.end.p0(i64 4, ptr %7) #12
  ret void

52:                                               ; preds = %45
  unreachable
}