; Function Attrs: nounwind uwtable
define internal fastcc void @write_buf_to_worktree(ptr noundef %0, ptr noundef nonnull %1, i64 noundef %2) unnamed_addr #0 {
  %4 = tail call ptr @oid_to_hex(ptr noundef %0) #17
  %5 = tail call ptr (ptr, ...) @git_pathdup(ptr nonnull poison, ptr noundef %4)
  %6 = tail call i32 @safe_create_leading_directories_const(ptr noundef %5) #17
  %.not = icmp eq i32 %6, 0
  br i1 %.not, label %8, label %7

7:                                                ; preds = %3
  tail call void (ptr, ...) @die_errno(ptr noundef nonnull @.str.73, ptr noundef %5) #18
  unreachable

8:                                                ; preds = %3
  %9 = tail call i32 (ptr, i32, ...) @xopen(ptr noundef %5, i32 noundef 193, i32 noundef 438) #17
  %.not1924 = icmp eq i64 %2, 0
  br i1 %.not1924, label %.thread, label %.lr.ph

.lr.ph:                                           ; preds = %8, %17
  %.01526 = phi ptr [ %19, %17 ], [ %1, %8 ]
  %.01625 = phi i64 [ %18, %17 ], [ %2, %8 ]
  %10 = tail call i64 @write_in_full(i32 noundef %9, ptr noundef %.01526, i64 noundef %.01625) #17
  %11 = icmp slt i64 %10, 0
  br i1 %11, label %12, label %17

12:                                               ; preds = %.lr.ph
  %13 = tail call ptr @__errno_location() #20
  %14 = load i32, ptr %13, align 4, !tbaa !81
  %15 = icmp eq i32 %14, 32
  br i1 %15, label %.thread, label %16

16:                                               ; preds = %12
  tail call void (ptr, ...) @die_errno(ptr noundef nonnull @.str.74) #18
  unreachable

17:                                               ; preds = %.lr.ph
  %18 = sub i64 %.01625, %10
  %19 = getelementptr inbounds nuw i8, ptr %.01526, i64 %10
  %.not19 = icmp eq i64 %18, 0
  br i1 %.not19, label %.thread, label %.lr.ph

.thread:                                          ; preds = %17, %8, %12
  %20 = tail call i32 @close(i32 noundef %9) #17
  tail call void @free(ptr noundef %5) #17
  ret void
}